target datalayout = "e-m:e-p270:32:32-p271:32:32-p272:64:64-i64:64-i128:128-f80:128-n8:16:32:64-S128"
target triple = "x86_64-pc-linux-gnu"

@_ZZN5ImGui17ShowStyleSelectorEPKcE9style_idx = internal global i32 -1, align 4
@.str.159 = private unnamed_addr constant [20 x i8] c"Dark\00Light\00Classic\00\00", align 1

; Function Attrs: mustprogress uwtable
define dso_local noundef zeroext i1 @_ZN5ImGui17ShowStyleSelectorEPKc(ptr noundef %0) #0 {
  %2 = alloca i1, align 1
  %3 = alloca ptr, align 8
  store ptr %0, ptr %3, align 8, !tbaa !103
  %4 = load ptr, ptr %3, align 8, !tbaa !103
  %5 = call noundef zeroext i1 @_ZN5ImGui5ComboEPKcPiS1_i(ptr noundef %4, ptr noundef @_ZZN5ImGui17ShowStyleSelectorEPKcE9style_idx, ptr noundef @.str.159, i32 noundef -1)
  br i1 %5, label %6, label %12

6:                                                ; preds = %1
  %7 = load i32, ptr @_ZZN5ImGui17ShowStyleSelectorEPKcE9style_idx, align 4, !tbaa !33
  switch i32 %7, label %11 [
    i32 0, label %8
    i32 1, label %9
    i32 2, label %10
  ]

8:                                                ; preds = %6
  call void @_ZN5ImGui15StyleColorsDarkEP10ImGuiStyle(ptr noundef null)
  br label %11

9:                                                ; preds = %6
  call void @_ZN5ImGui16StyleColorsLightEP10ImGuiStyle(ptr noundef null)
  br label %11

10:                                               ; preds = %6
  call void @_ZN5ImGui18StyleColorsClassicEP10ImGuiStyle(ptr noundef null)
  br label %11

11:                                               ; preds = %6, %10, %9, %8
  store i1 true, ptr %2, align 1
  br label %13

12:                                               ; preds = %1
  store i1 false, ptr %2, align 1
  br label %13

13:                                               ; preds = %12, %11
  %14 = load i1, ptr %2, align 1
  ret i1 %14
}