; Function Attrs: mustprogress uwtable
define dso_local noundef zeroext i1 @_ZN5ImGui17ShowStyleSelectorEPKc(ptr noundef %0) local_unnamed_addr #2 {
  %2 = tail call noundef zeroext i1 @_ZN5ImGui5ComboEPKcPiS1_i(ptr noundef %0, ptr noundef nonnull @_ZZN5ImGui17ShowStyleSelectorEPKcE9style_idx, ptr noundef nonnull @.str.159, i32 noundef -1)
  br i1 %2, label %3, label %8

3:                                                ; preds = %1
  %4 = load i32, ptr @_ZZN5ImGui17ShowStyleSelectorEPKcE9style_idx, align 4, !tbaa !54
  switch i32 %4, label %8 [
    i32 0, label %5
    i32 1, label %6
    i32 2, label %7
  ]

5:                                                ; preds = %3
  tail call void @_ZN5ImGui15StyleColorsDarkEP10ImGuiStyle(ptr noundef null)
  br label %8

6:                                                ; preds = %3
  tail call void @_ZN5ImGui16StyleColorsLightEP10ImGuiStyle(ptr noundef null)
  br label %8

7:                                                ; preds = %3
  tail call void @_ZN5ImGui18StyleColorsClassicEP10ImGuiStyle(ptr noundef null)
  br label %8

8:                                                ; preds = %1, %3, %5, %6, %7
  ret i1 %2
}